target datalayout = "e-m:e-p270:32:32-p271:32:32-p272:64:64-i64:64-i128:128-f80:128-n8:16:32:64-S128"
target triple = "x86_64-pc-linux-gnu"

%class.QString = type { %struct.QArrayDataPointer.0 }
%struct.QArrayDataPointer.0 = type { ptr, ptr, i64 }
%struct.QMetaObject = type { %"struct.QMetaObject::Data" }
%"struct.QMetaObject::Data" = type { %"struct.QMetaObject::SuperData", ptr, ptr, ptr, ptr, ptr, ptr }
%"struct.QMetaObject::SuperData" = type { ptr }
%class.QBasicAtomicInteger = type { %"struct.std::atomic" }
%"struct.std::atomic" = type { %"struct.std::__atomic_base" }
%"struct.std::__atomic_base" = type { i32 }
%struct.QArrayData = type { %class.QBasicAtomicInteger, %class.QFlags, i64 }
%class.QFlags = type { i32 }

@_ZN10MainWindow16staticMetaObjectE = external global %struct.QMetaObject, align 8

; Function Attrs: mustprogress nounwind uwtable
define linkonce_odr noundef i32 @_ZNSt13__atomic_baseIiEmmEv(ptr noundef nonnull align 4 dereferenceable(4) %0) #1 comdat align 2 {
  %2 = alloca ptr, align 8
  %3 = alloca i32, align 4
  %4 = alloca i32, align 4
  store ptr %0, ptr %2, align 8
  %5 = load ptr, ptr %2, align 8
  %6 = getelementptr inbounds %"struct.std::__atomic_base", ptr %5, i32 0, i32 0
  store i32 1, ptr %3, align 4
  %7 = load i32, ptr %3, align 4
  %8 = atomicrmw sub ptr %6, i32 %7 seq_cst, align 4
  %9 = sub i32 %8, %7
  store i32 %9, ptr %4, align 4
  %10 = load i32, ptr %4, align 4
  ret i32 %10
}

; Function Attrs: mustprogress nounwind uwtable
define linkonce_odr noundef zeroext i1 @_ZN10QAtomicOpsIiE5derefIiEEbRSt6atomicIT_E(ptr noundef nonnull align 4 dereferenceable(4) %0) #1 comdat align 2 {
  %2 = alloca ptr, align 8
  store ptr %0, ptr %2, align 8
  %3 = load ptr, ptr %2, align 8
  %4 = call noundef i32 @_ZNSt13__atomic_baseIiEmmEv(ptr noundef nonnull align 4 dereferenceable(4) %3) #2
  %5 = icmp ne i32 %4, 0
  ret i1 %5
}

; Function Attrs: mustprogress nounwind uwtable
define linkonce_odr noundef zeroext i1 @_ZN19QBasicAtomicIntegerIiE5derefEv(ptr noundef nonnull align 4 dereferenceable(4) %0) #1 comdat align 2 {
  %2 = alloca ptr, align 8
  store ptr %0, ptr %2, align 8
  %3 = load ptr, ptr %2, align 8
  %4 = getelementptr inbounds %class.QBasicAtomicInteger, ptr %3, i32 0, i32 0
  %5 = call noundef zeroext i1 @_ZN10QAtomicOpsIiE5derefIiEEbRSt6atomicIT_E(ptr noundef nonnull align 4 dereferenceable(4) %4) #2
  ret i1 %5
}

; Function Attrs: mustprogress nounwind uwtable
define linkonce_odr noundef zeroext i1 @_ZN10QArrayData5derefEv(ptr noundef nonnull align 8 dereferenceable(16) %0) #1 comdat align 2 {
  %2 = alloca ptr, align 8
  store ptr %0, ptr %2, align 8
  %3 = load ptr, ptr %2, align 8
  %4 = getelementptr inbounds %struct.QArrayData, ptr %3, i32 0, i32 0
  %5 = call noundef zeroext i1 @_ZN19QBasicAtomicIntegerIiE5derefEv(ptr noundef nonnull align 4 dereferenceable(4) %4) #2
  ret i1 %5
}

; Function Attrs: mustprogress nounwind uwtable
define linkonce_odr void @_ZN15QTypedArrayDataIDsE10deallocateEP10QArrayData(ptr noundef %0) #1 comdat align 2 {
  %2 = alloca ptr, align 8
  store ptr %0, ptr %2, align 8
  %3 = load ptr, ptr %2, align 8
  call void @_ZN10QArrayData10deallocateEPS_xx(ptr noundef %3, i64 noundef 2, i64 noundef 8) #2
  ret void
}

; Function Attrs: mustprogress nounwind uwtable
define linkonce_odr void @_ZN9QtPrivate12QPodArrayOpsIDsE10destroyAllEv(ptr noundef nonnull align 8 dereferenceable(24) %0) #1 comdat align 2 {
  %2 = alloca ptr, align 8
  store ptr %0, ptr %2, align 8
  ret void
}

; Function Attrs: mustprogress nounwind uwtable
define linkonce_odr noundef ptr @_ZN17QArrayDataPointerIDsEptEv(ptr noundef nonnull align 8 dereferenceable(24) %0) #1 comdat align 2 {
  %2 = alloca ptr, align 8
  store ptr %0, ptr %2, align 8
  %3 = load ptr, ptr %2, align 8
  ret ptr %3
}

; Function Attrs: mustprogress nounwind uwtable
define linkonce_odr noundef zeroext i1 @_ZN17QArrayDataPointerIDsE5derefEv(ptr noundef nonnull align 8 dereferenceable(24) %0) #1 comdat align 2 {
  %2 = alloca ptr, align 8
  store ptr %0, ptr %2, align 8
  %3 = load ptr, ptr %2, align 8
  %4 = getelementptr inbounds %struct.QArrayDataPointer.0, ptr %3, i32 0, i32 0
  %5 = load ptr, ptr %4, align 8
  %6 = icmp ne ptr %5, null
  br i1 %6, label %7, label %11

7:                                                ; preds = %1
  %8 = getelementptr inbounds %struct.QArrayDataPointer.0, ptr %3, i32 0, i32 0
  %9 = load ptr, ptr %8, align 8
  %10 = call noundef zeroext i1 @_ZN10QArrayData5derefEv(ptr noundef nonnull align 8 dereferenceable(16) %9) #2
  br label %11

11:                                               ; preds = %7, %1
  %12 = phi i1 [ true, %1 ], [ %10, %7 ]
  ret i1 %12
}

; Function Attrs: mustprogress nounwind uwtable
define linkonce_odr void @_ZN17QArrayDataPointerIDsED2Ev(ptr noundef nonnull align 8 dereferenceable(24) %0) unnamed_addr #1 comdat align 2 {
  %2 = alloca ptr, align 8
  store ptr %0, ptr %2, align 8
  %3 = load ptr, ptr %2, align 8
  %4 = call noundef zeroext i1 @_ZN17QArrayDataPointerIDsE5derefEv(ptr noundef nonnull align 8 dereferenceable(24) %3) #2
  br i1 %4, label %9, label %5

5:                                                ; preds = %1
  %6 = call noundef ptr @_ZN17QArrayDataPointerIDsEptEv(ptr noundef nonnull align 8 dereferenceable(24) %3) #2
  call void @_ZN9QtPrivate12QPodArrayOpsIDsE10destroyAllEv(ptr noundef nonnull align 8 dereferenceable(24) %6) #2
  %7 = getelementptr inbounds %struct.QArrayDataPointer.0, ptr %3, i32 0, i32 0
  %8 = load ptr, ptr %7, align 8
  call void @_ZN15QTypedArrayDataIDsE10deallocateEP10QArrayData(ptr noundef %8) #2
  br label %9

9:                                                ; preds = %5, %1
  ret void
}

; Function Attrs: mustprogress nounwind uwtable
define linkonce_odr void @_ZN17QArrayDataPointerIDsEC2Ev(ptr noundef nonnull align 8 dereferenceable(24) %0) unnamed_addr #1 comdat align 2 {
  %2 = alloca ptr, align 8
  store ptr %0, ptr %2, align 8
  %3 = load ptr, ptr %2, align 8
  %4 = getelementptr inbounds %struct.QArrayDataPointer.0, ptr %3, i32 0, i32 0
  store ptr null, ptr %4, align 8
  %5 = getelementptr inbounds %struct.QArrayDataPointer.0, ptr %3, i32 0, i32 1
  store ptr null, ptr %5, align 8
  %6 = getelementptr inbounds %struct.QArrayDataPointer.0, ptr %3, i32 0, i32 2
  store i64 0, ptr %6, align 8
  ret void
}

; Function Attrs: mustprogress uwtable
define linkonce_odr noundef ptr @_ZNK11QMetaObject4castEP7QObject(ptr noundef nonnull align 8 dereferenceable(56) %0, ptr noundef %1) #4 comdat align 2 {
  %3 = alloca ptr, align 8
  %4 = alloca ptr, align 8
  store ptr %0, ptr %3, align 8
  store ptr %1, ptr %4, align 8
  %5 = load ptr, ptr %3, align 8
  %6 = load ptr, ptr %4, align 8
  %7 = call noundef ptr @_ZNK11QMetaObject4castEPK7QObject(ptr noundef nonnull align 8 dereferenceable(56) %5, ptr noundef %6)
  ret ptr %7
}

; Function Attrs: mustprogress nounwind uwtable
define linkonce_odr void @_ZN7QStringD2Ev(ptr noundef nonnull align 8 dereferenceable(24) %0) unnamed_addr #1 comdat align 2 {
  %2 = alloca ptr, align 8
  store ptr %0, ptr %2, align 8
  %3 = load ptr, ptr %2, align 8
  %4 = getelementptr inbounds %class.QString, ptr %3, i32 0, i32 0
  call void @_ZN17QArrayDataPointerIDsED2Ev(ptr noundef nonnull align 8 dereferenceable(24) %4) #2
  ret void
}

; Function Attrs: mustprogress nounwind uwtable
define linkonce_odr void @_ZN7QStringC2Ev(ptr noundef nonnull align 8 dereferenceable(24) %0) unnamed_addr #1 comdat align 2 {
  %2 = alloca ptr, align 8
  store ptr %0, ptr %2, align 8
  %3 = load ptr, ptr %2, align 8
  %4 = getelementptr inbounds %class.QString, ptr %3, i32 0, i32 0
  call void @_ZN17QArrayDataPointerIDsEC2Ev(ptr noundef nonnull align 8 dereferenceable(24) %4) #2
  ret void
}

; Function Attrs: mustprogress uwtable
define linkonce_odr noundef ptr @_Z12qobject_castIP10MainWindowET_P7QObject(ptr noundef %0) #4 comdat {
  %2 = alloca ptr, align 8
  store ptr %0, ptr %2, align 8
  %3 = load ptr, ptr %2, align 8
  %4 = call noundef ptr @_ZNK11QMetaObject4castEP7QObject(ptr noundef nonnull align 8 dereferenceable(56) @_ZN10MainWindow16staticMetaObjectE, ptr noundef %3)
  ret ptr %4
}

; Function Attrs: mustprogress uwtable
define void @_ZN15MainApplication10pushStatusENS_10StatusInfoERK7QStringS3_(ptr noundef nonnull align 8 dereferenceable(216) %0, i32 noundef %1, ptr noundef nonnull align 8 dereferenceable(24) %2, ptr noundef nonnull align 8 dereferenceable(24) %3) #4 align 2 personality ptr @__gxx_personality_v0 {
  %5 = alloca ptr, align 8
  %6 = alloca i32, align 4
  %7 = alloca ptr, align 8
  %8 = alloca ptr, align 8
  %9 = alloca ptr, align 8
  %10 = alloca ptr, align 8
  %11 = alloca %class.QString, align 8
  %12 = alloca ptr, align 8
  %13 = alloca i32, align 4
  %14 = alloca %class.QString, align 8
  %15 = alloca %class.QString, align 8
  %16 = alloca %class.QString, align 8
  store ptr %0, ptr %5, align 8
  store i32 %1, ptr %6, align 4
  store ptr %2, ptr %7, align 8
  store ptr %3, ptr %8, align 8
  %17 = load ptr, ptr %5, align 8
  %18 = call noundef ptr @_ZN15MainApplication10mainWindowEv(ptr noundef nonnull align 8 dereferenceable(216) %17)
  %19 = icmp ne ptr %18, null
  br i1 %19, label %20, label %24

20:                                               ; preds = %4
  %21 = call noundef ptr @_ZN15MainApplication10mainWindowEv(ptr noundef nonnull align 8 dereferenceable(216) %17)
  %22 = call noundef ptr @_Z12qobject_castIP10MainWindowET_P7QObject(ptr noundef %21)
  %23 = icmp ne ptr %22, null
  br i1 %23, label %25, label %24

24:                                               ; preds = %20, %4
  br label %76

25:                                               ; preds = %20
  %26 = call noundef ptr @_ZN15MainApplication10mainWindowEv(ptr noundef nonnull align 8 dereferenceable(216) %17)
  %27 = call noundef ptr @_Z12qobject_castIP10MainWindowET_P7QObject(ptr noundef %26)
  store ptr %27, ptr %9, align 8
  %28 = load ptr, ptr %9, align 8
  %29 = call noundef ptr @_ZN10MainWindow9statusBarEv(ptr noundef nonnull align 8 dereferenceable(272) %28)
  %30 = icmp ne ptr %29, null
  br i1 %30, label %32, label %31

31:                                               ; preds = %25
  br label %76

32:                                               ; preds = %25
  %33 = load ptr, ptr %9, align 8
  %34 = call noundef ptr @_ZN10MainWindow9statusBarEv(ptr noundef nonnull align 8 dereferenceable(272) %33)
  store ptr %34, ptr %10, align 8
  %35 = load i32, ptr %6, align 4
  switch i32 %35, label %76 [
    i32 0, label %36
    i32 1, label %44
    i32 2, label %52
    i32 4, label %56
    i32 3, label %64
    i32 5, label %68
  ]

36:                                               ; preds = %32
  %37 = load ptr, ptr %10, align 8
  %38 = load ptr, ptr %7, align 8
  call void @_ZN7QStringC2Ev(ptr noundef nonnull align 8 dereferenceable(24) %11) #2
  invoke void @_ZN13MainStatusBar17pushGenericStatusENS_13StatusContextERK7QStringS3_(ptr noundef nonnull align 8 dereferenceable(512) %37, i32 noundef 4, ptr noundef nonnull align 8 dereferenceable(24) %38, ptr noundef nonnull align 8 dereferenceable(24) %11)
          to label %39 unwind label %40

39:                                               ; preds = %36
  call void @_ZN7QStringD2Ev(ptr noundef nonnull align 8 dereferenceable(24) %11) #2
  br label %76

40:                                               ; preds = %36
  %41 = landingpad { ptr, i32 }
          cleanup
  %42 = extractvalue { ptr, i32 } %41, 0
  store ptr %42, ptr %12, align 8
  %43 = extractvalue { ptr, i32 } %41, 1
  store i32 %43, ptr %13, align 4
  call void @_ZN7QStringD2Ev(ptr noundef nonnull align 8 dereferenceable(24) %11) #2
  br label %77

44:                                               ; preds = %32
  %45 = load ptr, ptr %10, align 8
  %46 = load ptr, ptr %7, align 8
  call void @_ZN7QStringC2Ev(ptr noundef nonnull align 8 dereferenceable(24) %14) #2
  invoke void @_ZN13MainStatusBar17pushGenericStatusENS_13StatusContextERK7QStringS3_(ptr noundef nonnull align 8 dereferenceable(512) %45, i32 noundef 2, ptr noundef nonnull align 8 dereferenceable(24) %46, ptr noundef nonnull align 8 dereferenceable(24) %14)
          to label %47 unwind label %48

47:                                               ; preds = %44
  call void @_ZN7QStringD2Ev(ptr noundef nonnull align 8 dereferenceable(24) %14) #2
  br label %76

48:                                               ; preds = %44
  %49 = landingpad { ptr, i32 }
          cleanup
  %50 = extractvalue { ptr, i32 } %49, 0
  store ptr %50, ptr %12, align 8
  %51 = extractvalue { ptr, i32 } %49, 1
  store i32 %51, ptr %13, align 4
  call void @_ZN7QStringD2Ev(ptr noundef nonnull align 8 dereferenceable(24) %14) #2
  br label %77

52:                                               ; preds = %32
  %53 = load ptr, ptr %10, align 8
  %54 = load ptr, ptr %7, align 8
  %55 = load ptr, ptr %8, align 8
  call void @_ZN13MainStatusBar17pushGenericStatusENS_13StatusContextERK7QStringS3_(ptr noundef nonnull align 8 dereferenceable(512) %53, i32 noundef 1, ptr noundef nonnull align 8 dereferenceable(24) %54, ptr noundef nonnull align 8 dereferenceable(24) %55)
  br label %76

56:                                               ; preds = %32
  %57 = load ptr, ptr %10, align 8
  %58 = load ptr, ptr %7, align 8
  call void @_ZN7QStringC2Ev(ptr noundef nonnull align 8 dereferenceable(24) %15) #2
  invoke void @_ZN13MainStatusBar17pushGenericStatusENS_13StatusContextERK7QStringS3_(ptr noundef nonnull align 8 dereferenceable(512) %57, i32 noundef 3, ptr noundef nonnull align 8 dereferenceable(24) %58, ptr noundef nonnull align 8 dereferenceable(24) %15)
          to label %59 unwind label %60

59:                                               ; preds = %56
  call void @_ZN7QStringD2Ev(ptr noundef nonnull align 8 dereferenceable(24) %15) #2
  br label %76

60:                                               ; preds = %56
  %61 = landingpad { ptr, i32 }
          cleanup
  %62 = extractvalue { ptr, i32 } %61, 0
  store ptr %62, ptr %12, align 8
  %63 = extractvalue { ptr, i32 } %61, 1
  store i32 %63, ptr %13, align 4
  call void @_ZN7QStringD2Ev(ptr noundef nonnull align 8 dereferenceable(24) %15) #2
  br label %77

64:                                               ; preds = %32
  %65 = load ptr, ptr %10, align 8
  %66 = load ptr, ptr %7, align 8
  %67 = load ptr, ptr %8, align 8
  call void @_ZN13MainStatusBar17pushGenericStatusENS_13StatusContextERK7QStringS3_(ptr noundef nonnull align 8 dereferenceable(512) %65, i32 noundef 5, ptr noundef nonnull align 8 dereferenceable(24) %66, ptr noundef nonnull align 8 dereferenceable(24) %67)
  br label %76

68:                                               ; preds = %32
  %69 = load ptr, ptr %10, align 8
  %70 = load ptr, ptr %7, align 8
  call void @_ZN7QStringC2Ev(ptr noundef nonnull align 8 dereferenceable(24) %16) #2
  invoke void @_ZN13MainStatusBar17pushGenericStatusENS_13StatusContextERK7QStringS3_(ptr noundef nonnull align 8 dereferenceable(512) %69, i32 noundef 6, ptr noundef nonnull align 8 dereferenceable(24) %70, ptr noundef nonnull align 8 dereferenceable(24) %16)
          to label %71 unwind label %72

71:                                               ; preds = %68
  call void @_ZN7QStringD2Ev(ptr noundef nonnull align 8 dereferenceable(24) %16) #2
  br label %76

72:                                               ; preds = %68
  %73 = landingpad { ptr, i32 }
          cleanup
  %74 = extractvalue { ptr, i32 } %73, 0
  store ptr %74, ptr %12, align 8
  %75 = extractvalue { ptr, i32 } %73, 1
  store i32 %75, ptr %13, align 4
  call void @_ZN7QStringD2Ev(ptr noundef nonnull align 8 dereferenceable(24) %16) #2
  br label %77

76:                                               ; preds = %71, %64, %59, %52, %47, %39, %32, %31, %24
  ret void

77:                                               ; preds = %72, %60, %48, %40
  %78 = load ptr, ptr %12, align 8
  %79 = load i32, ptr %13, align 4
  %80 = insertvalue { ptr, i32 } poison, ptr %78, 0
  %81 = insertvalue { ptr, i32 } %80, i32 %79, 1
  resume { ptr, i32 } %81
}