; Function Attrs: mustprogress uwtable
define void @_ZN15MainApplication10pushStatusENS_10StatusInfoERK7QStringS3_(ptr nocapture noundef nonnull readnone align 8 dereferenceable(216) %0, i32 noundef %1, ptr noundef nonnull align 8 dereferenceable(24) %2, ptr noundef nonnull align 8 dereferenceable(24) %3) local_unnamed_addr #3 align 2 personality ptr @__gxx_personality_v0 {
  %5 = alloca %class.QString, align 8
  %6 = alloca %class.QString, align 8
  %7 = alloca %class.QString, align 8
  %8 = alloca %class.QString, align 8
  %9 = tail call noundef ptr @_ZN15MainApplication10mainWindowEv(ptr nonnull align 8 poison)
  %.not = icmp eq ptr %9, null
  br i1 %.not, label %_ZN7QStringD2Ev.exit, label %10

10:                                               ; preds = %4
  %11 = tail call noundef ptr @_ZN15MainApplication10mainWindowEv(ptr nonnull align 8 poison)
  %12 = tail call noundef ptr @_ZNK11QMetaObject4castEPK7QObject(ptr noundef nonnull align 8 dereferenceable(56) @_ZN10MainWindow16staticMetaObjectE, ptr noundef %11)
  %.not20 = icmp eq ptr %12, null
  br i1 %.not20, label %_ZN7QStringD2Ev.exit, label %13

13:                                               ; preds = %10
  %14 = tail call noundef ptr @_ZN15MainApplication10mainWindowEv(ptr nonnull align 8 poison)
  %15 = tail call noundef ptr @_ZNK11QMetaObject4castEPK7QObject(ptr noundef nonnull align 8 dereferenceable(56) @_ZN10MainWindow16staticMetaObjectE, ptr noundef %14)
  %16 = tail call noundef ptr @_ZN10MainWindow9statusBarEv(ptr noundef nonnull align 8 dereferenceable(272) %15)
  %.not21 = icmp eq ptr %16, null
  br i1 %.not21, label %_ZN7QStringD2Ev.exit, label %17

17:                                               ; preds = %13
  %18 = tail call noundef ptr @_ZN10MainWindow9statusBarEv(ptr noundef nonnull align 8 dereferenceable(272) %15)
  switch i32 %1, label %_ZN7QStringD2Ev.exit [
    i32 0, label %19
    i32 1, label %29
    i32 2, label %39
    i32 4, label %40
    i32 3, label %50
    i32 5, label %51
  ]

19:                                               ; preds = %17
  call void @llvm.memset.p0.i64(ptr noundef nonnull align 8 dereferenceable(24) %5, i8 0, i64 24, i1 false)
  invoke void @_ZN13MainStatusBar17pushGenericStatusENS_13StatusContextERK7QStringS3_(ptr noundef nonnull align 8 dereferenceable(512) %18, i32 noundef 4, ptr noundef nonnull align 8 dereferenceable(24) %2, ptr noundef nonnull align 8 dereferenceable(24) %5)
          to label %20 unwind label %25

20:                                               ; preds = %19
  %21 = load ptr, ptr %5, align 8
  %.not.i.i.i = icmp eq ptr %21, null
  br i1 %.not.i.i.i, label %_ZN7QStringD2Ev.exit, label %_ZN17QArrayDataPointerIDsE5derefEv.exit.i.i

_ZN17QArrayDataPointerIDsE5derefEv.exit.i.i:      ; preds = %20
  %22 = atomicrmw sub ptr %21, i32 1 seq_cst, align 4
  %.not.i.i = icmp eq i32 %22, 1
  br i1 %.not.i.i, label %23, label %_ZN7QStringD2Ev.exit

23:                                               ; preds = %_ZN17QArrayDataPointerIDsE5derefEv.exit.i.i
  %24 = load ptr, ptr %5, align 8
  call void @_ZN10QArrayData10deallocateEPS_xx(ptr noundef %24, i64 noundef 2, i64 noundef 8) #26
  br label %_ZN7QStringD2Ev.exit

25:                                               ; preds = %19
  %26 = landingpad { ptr, i32 }
          cleanup
  %27 = load ptr, ptr %5, align 8
  %.not.i.i.i23 = icmp eq ptr %27, null
  br i1 %.not.i.i.i23, label %_ZN7QStringD2Ev.exit26, label %_ZN17QArrayDataPointerIDsE5derefEv.exit.i.i24

_ZN17QArrayDataPointerIDsE5derefEv.exit.i.i24:    ; preds = %25
  %28 = atomicrmw sub ptr %27, i32 1 seq_cst, align 4
  %.not.i.i25 = icmp eq i32 %28, 1
  br i1 %.not.i.i25, label %_ZN7QStringD2Ev.exit26.sink.split, label %_ZN7QStringD2Ev.exit26

29:                                               ; preds = %17
  call void @llvm.memset.p0.i64(ptr noundef nonnull align 8 dereferenceable(24) %6, i8 0, i64 24, i1 false)
  invoke void @_ZN13MainStatusBar17pushGenericStatusENS_13StatusContextERK7QStringS3_(ptr noundef nonnull align 8 dereferenceable(512) %18, i32 noundef 2, ptr noundef nonnull align 8 dereferenceable(24) %2, ptr noundef nonnull align 8 dereferenceable(24) %6)
          to label %30 unwind label %35

30:                                               ; preds = %29
  %31 = load ptr, ptr %6, align 8
  %.not.i.i.i27 = icmp eq ptr %31, null
  br i1 %.not.i.i.i27, label %_ZN7QStringD2Ev.exit, label %_ZN17QArrayDataPointerIDsE5derefEv.exit.i.i28

_ZN17QArrayDataPointerIDsE5derefEv.exit.i.i28:    ; preds = %30
  %32 = atomicrmw sub ptr %31, i32 1 seq_cst, align 4
  %.not.i.i29 = icmp eq i32 %32, 1
  br i1 %.not.i.i29, label %33, label %_ZN7QStringD2Ev.exit

33:                                               ; preds = %_ZN17QArrayDataPointerIDsE5derefEv.exit.i.i28
  %34 = load ptr, ptr %6, align 8
  call void @_ZN10QArrayData10deallocateEPS_xx(ptr noundef %34, i64 noundef 2, i64 noundef 8) #26
  br label %_ZN7QStringD2Ev.exit

35:                                               ; preds = %29
  %36 = landingpad { ptr, i32 }
          cleanup
  %37 = load ptr, ptr %6, align 8
  %.not.i.i.i31 = icmp eq ptr %37, null
  br i1 %.not.i.i.i31, label %_ZN7QStringD2Ev.exit26, label %_ZN17QArrayDataPointerIDsE5derefEv.exit.i.i32

_ZN17QArrayDataPointerIDsE5derefEv.exit.i.i32:    ; preds = %35
  %38 = atomicrmw sub ptr %37, i32 1 seq_cst, align 4
  %.not.i.i33 = icmp eq i32 %38, 1
  br i1 %.not.i.i33, label %_ZN7QStringD2Ev.exit26.sink.split, label %_ZN7QStringD2Ev.exit26

39:                                               ; preds = %17
  tail call void @_ZN13MainStatusBar17pushGenericStatusENS_13StatusContextERK7QStringS3_(ptr noundef nonnull align 8 dereferenceable(512) %18, i32 noundef 1, ptr noundef nonnull align 8 dereferenceable(24) %2, ptr noundef nonnull align 8 dereferenceable(24) %3)
  br label %_ZN7QStringD2Ev.exit

40:                                               ; preds = %17
  call void @llvm.memset.p0.i64(ptr noundef nonnull align 8 dereferenceable(24) %7, i8 0, i64 24, i1 false)
  invoke void @_ZN13MainStatusBar17pushGenericStatusENS_13StatusContextERK7QStringS3_(ptr noundef nonnull align 8 dereferenceable(512) %18, i32 noundef 3, ptr noundef nonnull align 8 dereferenceable(24) %2, ptr noundef nonnull align 8 dereferenceable(24) %7)
          to label %41 unwind label %46

41:                                               ; preds = %40
  %42 = load ptr, ptr %7, align 8
  %.not.i.i.i35 = icmp eq ptr %42, null
  br i1 %.not.i.i.i35, label %_ZN7QStringD2Ev.exit, label %_ZN17QArrayDataPointerIDsE5derefEv.exit.i.i36

_ZN17QArrayDataPointerIDsE5derefEv.exit.i.i36:    ; preds = %41
  %43 = atomicrmw sub ptr %42, i32 1 seq_cst, align 4
  %.not.i.i37 = icmp eq i32 %43, 1
  br i1 %.not.i.i37, label %44, label %_ZN7QStringD2Ev.exit

44:                                               ; preds = %_ZN17QArrayDataPointerIDsE5derefEv.exit.i.i36
  %45 = load ptr, ptr %7, align 8
  call void @_ZN10QArrayData10deallocateEPS_xx(ptr noundef %45, i64 noundef 2, i64 noundef 8) #26
  br label %_ZN7QStringD2Ev.exit

46:                                               ; preds = %40
  %47 = landingpad { ptr, i32 }
          cleanup
  %48 = load ptr, ptr %7, align 8
  %.not.i.i.i39 = icmp eq ptr %48, null
  br i1 %.not.i.i.i39, label %_ZN7QStringD2Ev.exit26, label %_ZN17QArrayDataPointerIDsE5derefEv.exit.i.i40

_ZN17QArrayDataPointerIDsE5derefEv.exit.i.i40:    ; preds = %46
  %49 = atomicrmw sub ptr %48, i32 1 seq_cst, align 4
  %.not.i.i41 = icmp eq i32 %49, 1
  br i1 %.not.i.i41, label %_ZN7QStringD2Ev.exit26.sink.split, label %_ZN7QStringD2Ev.exit26

50:                                               ; preds = %17
  tail call void @_ZN13MainStatusBar17pushGenericStatusENS_13StatusContextERK7QStringS3_(ptr noundef nonnull align 8 dereferenceable(512) %18, i32 noundef 5, ptr noundef nonnull align 8 dereferenceable(24) %2, ptr noundef nonnull align 8 dereferenceable(24) %3)
  br label %_ZN7QStringD2Ev.exit

51:                                               ; preds = %17
  call void @llvm.memset.p0.i64(ptr noundef nonnull align 8 dereferenceable(24) %8, i8 0, i64 24, i1 false)
  invoke void @_ZN13MainStatusBar17pushGenericStatusENS_13StatusContextERK7QStringS3_(ptr noundef nonnull align 8 dereferenceable(512) %18, i32 noundef 6, ptr noundef nonnull align 8 dereferenceable(24) %2, ptr noundef nonnull align 8 dereferenceable(24) %8)
          to label %52 unwind label %57

52:                                               ; preds = %51
  %53 = load ptr, ptr %8, align 8
  %.not.i.i.i43 = icmp eq ptr %53, null
  br i1 %.not.i.i.i43, label %_ZN7QStringD2Ev.exit, label %_ZN17QArrayDataPointerIDsE5derefEv.exit.i.i44

_ZN17QArrayDataPointerIDsE5derefEv.exit.i.i44:    ; preds = %52
  %54 = atomicrmw sub ptr %53, i32 1 seq_cst, align 4
  %.not.i.i45 = icmp eq i32 %54, 1
  br i1 %.not.i.i45, label %55, label %_ZN7QStringD2Ev.exit

55:                                               ; preds = %_ZN17QArrayDataPointerIDsE5derefEv.exit.i.i44
  %56 = load ptr, ptr %8, align 8
  call void @_ZN10QArrayData10deallocateEPS_xx(ptr noundef %56, i64 noundef 2, i64 noundef 8) #26
  br label %_ZN7QStringD2Ev.exit

57:                                               ; preds = %51
  %58 = landingpad { ptr, i32 }
          cleanup
  %59 = load ptr, ptr %8, align 8
  %.not.i.i.i47 = icmp eq ptr %59, null
  br i1 %.not.i.i.i47, label %_ZN7QStringD2Ev.exit26, label %_ZN17QArrayDataPointerIDsE5derefEv.exit.i.i48

_ZN17QArrayDataPointerIDsE5derefEv.exit.i.i48:    ; preds = %57
  %60 = atomicrmw sub ptr %59, i32 1 seq_cst, align 4
  %.not.i.i49 = icmp eq i32 %60, 1
  br i1 %.not.i.i49, label %_ZN7QStringD2Ev.exit26.sink.split, label %_ZN7QStringD2Ev.exit26

_ZN7QStringD2Ev.exit:                             ; preds = %55, %_ZN17QArrayDataPointerIDsE5derefEv.exit.i.i44, %52, %44, %_ZN17QArrayDataPointerIDsE5derefEv.exit.i.i36, %41, %33, %_ZN17QArrayDataPointerIDsE5derefEv.exit.i.i28, %30, %23, %_ZN17QArrayDataPointerIDsE5derefEv.exit.i.i, %20, %13, %4, %10, %50, %39, %17
  ret void

_ZN7QStringD2Ev.exit26.sink.split:                ; preds = %_ZN17QArrayDataPointerIDsE5derefEv.exit.i.i48, %_ZN17QArrayDataPointerIDsE5derefEv.exit.i.i40, %_ZN17QArrayDataPointerIDsE5derefEv.exit.i.i32, %_ZN17QArrayDataPointerIDsE5derefEv.exit.i.i24
  %.sink.in = phi ptr [ %5, %_ZN17QArrayDataPointerIDsE5derefEv.exit.i.i24 ], [ %6, %_ZN17QArrayDataPointerIDsE5derefEv.exit.i.i32 ], [ %7, %_ZN17QArrayDataPointerIDsE5derefEv.exit.i.i40 ], [ %8, %_ZN17QArrayDataPointerIDsE5derefEv.exit.i.i48 ]
  %.pn.ph = phi { ptr, i32 } [ %26, %_ZN17QArrayDataPointerIDsE5derefEv.exit.i.i24 ], [ %36, %_ZN17QArrayDataPointerIDsE5derefEv.exit.i.i32 ], [ %47, %_ZN17QArrayDataPointerIDsE5derefEv.exit.i.i40 ], [ %58, %_ZN17QArrayDataPointerIDsE5derefEv.exit.i.i48 ]
  %.sink = load ptr, ptr %.sink.in, align 8
  call void @_ZN10QArrayData10deallocateEPS_xx(ptr noundef %.sink, i64 noundef 2, i64 noundef 8) #26
  br label %_ZN7QStringD2Ev.exit26

_ZN7QStringD2Ev.exit26:                           ; preds = %_ZN7QStringD2Ev.exit26.sink.split, %_ZN17QArrayDataPointerIDsE5derefEv.exit.i.i48, %57, %_ZN17QArrayDataPointerIDsE5derefEv.exit.i.i40, %46, %_ZN17QArrayDataPointerIDsE5derefEv.exit.i.i32, %35, %_ZN17QArrayDataPointerIDsE5derefEv.exit.i.i24, %25
  %.pn = phi { ptr, i32 } [ %26, %25 ], [ %26, %_ZN17QArrayDataPointerIDsE5derefEv.exit.i.i24 ], [ %36, %35 ], [ %36, %_ZN17QArrayDataPointerIDsE5derefEv.exit.i.i32 ], [ %47, %46 ], [ %47, %_ZN17QArrayDataPointerIDsE5derefEv.exit.i.i40 ], [ %58, %57 ], [ %58, %_ZN17QArrayDataPointerIDsE5derefEv.exit.i.i48 ], [ %.pn.ph, %_ZN7QStringD2Ev.exit26.sink.split ]
  resume { ptr, i32 } %.pn
}